; Function Attrs: null_pointer_is_valid sspstrong uwtable
define internal void @dissect_osd_write(ptr noundef %0, ptr noundef %1, ptr noundef %2, i32 noundef %3, i1 noundef zeroext %4, i1 noundef zeroext %5, i32 %6, ptr noundef captures(address_is_null) %7, ptr readnone captures(none) %8, ptr noundef %9) #3 {
  %.not = xor i1 %4, true
  %brmerge.not = and i1 %4, %5
  br i1 %brmerge.not, label %11, label %57

11:                                               ; preds = %10
  tail call fastcc void @dissect_osd_option(ptr noundef %0, i32 noundef %3, ptr noundef %2)
  %12 = add i32 %3, 1
  %.not.i = icmp eq ptr %7, null
  br i1 %.not.i, label %dissect_osd_getsetattrib.exit, label %13

13:                                               ; preds = %11
  %14 = getelementptr inbounds nuw i8, ptr %7, i64 8
  %15 = load ptr, ptr %14, align 8
  %.not11.i = icmp eq ptr %15, null
  br i1 %.not11.i, label %dissect_osd_getsetattrib.exit, label %16

16:                                               ; preds = %13
  %17 = getelementptr inbounds nuw i8, ptr %15, i64 64
  %18 = load ptr, ptr %17, align 8
  %.not12.i = icmp eq ptr %18, null
  br i1 %.not12.i, label %dissect_osd_getsetattrib.exit, label %19

19:                                               ; preds = %16
  %20 = tail call zeroext i8 @tvb_get_uint8(ptr noundef %0, i32 noundef %12)
  %21 = lshr i8 %20, 4
  %22 = and i8 %21, 3
  %23 = getelementptr inbounds nuw i8, ptr %18, i64 2
  store i8 %22, ptr %23, align 2
  br label %dissect_osd_getsetattrib.exit

dissect_osd_getsetattrib.exit:                    ; preds = %11, %13, %16, %19
  %24 = load i32, ptr @hf_scsi_osd_getsetattrib, align 4
  %25 = tail call ptr @proto_tree_add_item(ptr noundef %2, i32 noundef %24, ptr noundef %0, i32 noundef %12, i32 noundef 1, i32 noundef 0)
  %26 = add i32 %3, 2
  %27 = load i32, ptr @hf_scsi_osd_timestamps_control, align 4
  %28 = tail call ptr @proto_tree_add_item(ptr noundef %2, i32 noundef %27, ptr noundef %0, i32 noundef %26, i32 noundef 1, i32 noundef 0)
  %29 = add i32 %3, 6
  %30 = load i32, ptr @hf_scsi_osd_partition_id, align 4
  %31 = tail call fastcc ptr @dissect_osd_partition_id(ptr noundef %1, ptr noundef %0, i32 noundef %29, ptr noundef %2, i32 noundef %30, ptr noundef %9, i1 noundef zeroext false, i1 noundef zeroext false)
  %32 = add i32 %3, 14
  %33 = load i32, ptr @hf_scsi_osd_user_object_id, align 4
  %34 = tail call ptr @proto_tree_add_item(ptr noundef %2, i32 noundef %33, ptr noundef %0, i32 noundef %32, i32 noundef 8, i32 noundef 0)
  %35 = add i32 %3, 26
  %36 = load i32, ptr @hf_scsi_osd_length, align 4
  %37 = tail call ptr @proto_tree_add_item(ptr noundef %2, i32 noundef %36, ptr noundef %0, i32 noundef %35, i32 noundef 8, i32 noundef 0)
  %38 = add i32 %3, 34
  %39 = load i32, ptr @hf_scsi_osd_starting_byte_address, align 4
  %40 = tail call ptr @proto_tree_add_item(ptr noundef %2, i32 noundef %39, ptr noundef %0, i32 noundef %38, i32 noundef 8, i32 noundef 0)
  %41 = add i32 %3, 42
  tail call fastcc void @dissect_osd_attribute_parameters(ptr noundef %1, ptr noundef %0, i32 noundef %41, ptr noundef %2, ptr noundef %7)
  %42 = add i32 %3, 70
  tail call fastcc void @dissect_osd_capability(ptr noundef %0, i32 noundef %42, ptr noundef %2)
  %43 = add i32 %3, 150
  %44 = load i32, ptr @ett_osd_security_parameters, align 4
  %45 = tail call ptr @proto_tree_add_subtree(ptr noundef %2, ptr noundef %0, i32 noundef %43, i32 noundef 40, i32 noundef %44, ptr noundef null, ptr noundef nonnull @.str.294)
  %46 = load i32, ptr @hf_scsi_osd_ricv, align 4
  %47 = tail call ptr @proto_tree_add_item(ptr noundef %45, i32 noundef %46, ptr noundef %0, i32 noundef %43, i32 noundef 20, i32 noundef 0)
  %48 = add i32 %3, 170
  %49 = load i32, ptr @hf_scsi_osd_request_nonce, align 4
  %50 = tail call ptr @proto_tree_add_item(ptr noundef %45, i32 noundef %49, ptr noundef %0, i32 noundef %48, i32 noundef 12, i32 noundef 0)
  %51 = add i32 %3, 182
  %52 = load i32, ptr @hf_scsi_osd_diicvo, align 4
  %53 = tail call ptr @proto_tree_add_item(ptr noundef %45, i32 noundef %52, ptr noundef %0, i32 noundef %51, i32 noundef 4, i32 noundef 0)
  %54 = add i32 %3, 186
  %55 = load i32, ptr @hf_scsi_osd_doicvo, align 4
  %56 = tail call ptr @proto_tree_add_item(ptr noundef %45, i32 noundef %55, ptr noundef %0, i32 noundef %54, i32 noundef 4, i32 noundef 0)
  br label %57

57:                                               ; preds = %10, %dissect_osd_getsetattrib.exit
  %brmerge66 = or i1 %5, %.not
  br i1 %brmerge66, label %59, label %58

58:                                               ; preds = %57
  tail call fastcc void @dissect_osd_attribute_data_out(ptr noundef %1, ptr noundef %0, ptr noundef %2, ptr noundef %7, ptr noundef %9)
  br label %59

59:                                               ; preds = %57, %58
  %.not.i68 = icmp eq ptr %7, null
  %60 = or i1 %5, %.not.i68
  %or.cond = or i1 %4, %60
  br i1 %or.cond, label %dissect_osd_attribute_data_in.exit, label %61

61:                                               ; preds = %59
  %62 = getelementptr inbounds nuw i8, ptr %7, i64 8
  %63 = load ptr, ptr %62, align 8
  %.not14.i = icmp eq ptr %63, null
  br i1 %.not14.i, label %dissect_osd_attribute_data_in.exit, label %64

64:                                               ; preds = %61
  %65 = getelementptr inbounds nuw i8, ptr %63, i64 64
  %66 = load ptr, ptr %65, align 8
  %.not15.i = icmp eq ptr %66, null
  br i1 %.not15.i, label %dissect_osd_attribute_data_in.exit, label %67

67:                                               ; preds = %64
  %68 = getelementptr inbounds nuw i8, ptr %66, i64 2
  %69 = load i8, ptr %68, align 2
  %cond.i = icmp eq i8 %69, 3
  br i1 %cond.i, label %70, label %dissect_osd_attribute_data_in.exit

70:                                               ; preds = %67
  %71 = getelementptr inbounds nuw i8, ptr %66, i64 12
  %72 = load i32, ptr %71, align 4
  %.not16.i = icmp eq i32 %72, 0
  br i1 %.not16.i, label %dissect_osd_attribute_data_in.exit, label %73

73:                                               ; preds = %70
  %74 = getelementptr inbounds nuw i8, ptr %66, i64 16
  %75 = load i32, ptr %74, align 4
  %76 = getelementptr inbounds nuw i8, ptr %66, i64 32
  %77 = load i8, ptr %76, align 4, !range !9, !noundef !10
  %78 = trunc nuw i8 %77 to i1
  tail call fastcc void @dissect_osd_attributes_list(ptr noundef %1, ptr noundef %0, i32 noundef %75, ptr noundef %2, ptr noundef %9, i1 noundef zeroext %78)
  br label %dissect_osd_attribute_data_in.exit

dissect_osd_attribute_data_in.exit:               ; preds = %73, %70, %67, %64, %61, %59
  ret void
}